; ModuleID = '54/229.c'
source_filename = "54/229.c"
target datalayout = "e-m:e-p270:32:32-p271:32:32-p272:64:64-i64:64-f80:128-n8:16:32:64-S128"
target triple = "x86_64-pc-linux-gnu"

@.str = private unnamed_addr constant [6 x i8] c"%d %d\00", align 1
@.str.1 = private unnamed_addr constant [3 x i8] c"%d\00", align 1

; Function Attrs: noinline nounwind uwtable
define dso_local void @main() #0 {
  %1 = alloca i32, align 4
  %2 = alloca i32, align 4
  %3 = alloca i32, align 4
  %4 = alloca i32, align 4
  %5 = alloca i32, align 4
  store i32 1, i32* %5, align 4
  %6 = call i32 (i8*, ...) @__isoc99_scanf(i8* getelementptr inbounds ([6 x i8], [6 x i8]* @.str, i64 0, i64 0), i32* %1, i32* %2)
  %7 = load i32, i32* %1, align 4
  %8 = load i32, i32* %2, align 4
  %9 = add nsw i32 %7, %8
  store i32 %9, i32* %4, align 4
  br label %10

10:                                               ; preds = %0, %60
  store i32 1, i32* %3, align 4
  br label %11

11:                                               ; preds = %31, %10
  %12 = load i32, i32* %3, align 4
  %13 = load i32, i32* %1, align 4
  %14 = icmp slt i32 %12, %13
  br i1 %14, label %15, label %34

15:                                               ; preds = %11
  %16 = load i32, i32* %4, align 4
  %17 = load i32, i32* %2, align 4
  %18 = sub nsw i32 %16, %17
  %19 = load i32, i32* %1, align 4
  %20 = sub nsw i32 %19, 1
  %21 = mul nsw i32 %18, %20
  %22 = load i32, i32* %1, align 4
  %23 = sdiv i32 %21, %22
  store i32 %23, i32* %4, align 4
  %24 = load i32, i32* %4, align 4
  %25 = load i32, i32* %1, align 4
  %26 = srem i32 %24, %25
  %27 = load i32, i32* %2, align 4
  %28 = icmp ne i32 %26, %27
  br i1 %28, label %29, label %30

29:                                               ; preds = %15
  br label %34

30:                                               ; preds = %15
  br label %31

31:                                               ; preds = %30
  %32 = load i32, i32* %3, align 4
  %33 = add nsw i32 %32, 1
  store i32 %33, i32* %3, align 4
  br label %11

34:                                               ; preds = %29, %11
  %35 = load i32, i32* %3, align 4
  %36 = load i32, i32* %1, align 4
  %37 = icmp ne i32 %35, %36
  br i1 %37, label %51, label %38

38:                                               ; preds = %34
  %39 = load i32, i32* %4, align 4
  %40 = load i32, i32* %2, align 4
  %41 = sub nsw i32 %39, %40
  %42 = load i32, i32* %1, align 4
  %43 = sdiv i32 %41, %42
  %44 = icmp slt i32 %43, 1
  br i1 %44, label %51, label %45

45:                                               ; preds = %38
  %46 = load i32, i32* %4, align 4
  %47 = load i32, i32* %1, align 4
  %48 = srem i32 %46, %47
  %49 = load i32, i32* %2, align 4
  %50 = icmp ne i32 %48, %49
  br i1 %50, label %51, label %59

51:                                               ; preds = %45, %38, %34
  %52 = load i32, i32* %5, align 4
  %53 = add nsw i32 %52, 1
  store i32 %53, i32* %5, align 4
  %54 = load i32, i32* %1, align 4
  %55 = load i32, i32* %5, align 4
  %56 = mul nsw i32 %54, %55
  %57 = load i32, i32* %2, align 4
  %58 = add nsw i32 %56, %57
  store i32 %58, i32* %4, align 4
  br label %60

59:                                               ; preds = %45
  br label %61

60:                                               ; preds = %51
  br label %10

61:                                               ; preds = %59
  %62 = load i32, i32* %1, align 4
  %63 = load i32, i32* %5, align 4
  %64 = mul nsw i32 %62, %63
  %65 = load i32, i32* %2, align 4
  %66 = add nsw i32 %64, %65
  %67 = call i32 (i8*, ...) @printf(i8* getelementptr inbounds ([3 x i8], [3 x i8]* @.str.1, i64 0, i64 0), i32 %66)
  ret void
}

declare dso_local i32 @__isoc99_scanf(i8*, ...) #1

declare dso_local i32 @printf(i8*, ...) #1


!llvm.module.flags = !{!0}
!llvm.ident = !{!1}

!0 = !{i32 1, !"wchar_size", i32 4}
!1 = !{!"clang version 10.0.0-4ubuntu1 "}
